target datalayout = "e-m:e-p270:32:32-p271:32:32-p272:64:64-i64:64-i128:128-f80:128-n8:16:32:64-S128"
target triple = "x86_64-pc-linux-gnu"

%class.PathString = type { ptr }
%class.SystemProperty = type <{ %class.PathString, ptr, ptr, i8, i8, [6 x i8] }>

@_ZN14SystemPropertyC1EPKcS1_bb = hidden unnamed_addr alias void (ptr, ptr, ptr, i1, i1), ptr @_ZN14SystemPropertyC2EPKcS1_bb

; Function Attrs: mustprogress nounwind uwtable
define linkonce_odr hidden void @_ZN14SystemProperty8set_nextEPS_(ptr noundef nonnull align 8 dereferenceable(26) %0, ptr noundef %1) #1 comdat align 2 {
  %3 = alloca ptr, align 8
  %4 = alloca ptr, align 8
  store ptr %0, ptr %3, align 8
  store ptr %1, ptr %4, align 8
  %5 = load ptr, ptr %3, align 8
  %6 = load ptr, ptr %4, align 8
  %7 = getelementptr inbounds %class.SystemProperty, ptr %5, i32 0, i32 2
  store ptr %6, ptr %7, align 8
  ret void
}

; Function Attrs: mustprogress nounwind uwtable
define hidden void @_ZN9Arguments16PropertyList_addEPP14SystemPropertyS1_(ptr noundef %0, ptr noundef %1) #1 align 2 {
  %3 = alloca ptr, align 8
  %4 = alloca ptr, align 8
  %5 = alloca ptr, align 8
  store ptr %0, ptr %3, align 8
  store ptr %1, ptr %4, align 8
  %6 = load ptr, ptr %3, align 8
  %7 = load ptr, ptr %6, align 8
  store ptr %7, ptr %5, align 8
  %8 = load ptr, ptr %5, align 8
  %9 = icmp eq ptr %8, null
  br i1 %9, label %10, label %13

10:                                               ; preds = %2
  %11 = load ptr, ptr %4, align 8
  %12 = load ptr, ptr %3, align 8
  store ptr %11, ptr %12, align 8
  br label %24

13:                                               ; preds = %2
  br label %14

14:                                               ; preds = %18, %13
  %15 = load ptr, ptr %5, align 8
  %16 = call noundef ptr @_ZNK14SystemProperty4nextEv(ptr noundef nonnull align 8 dereferenceable(26) %15)
  %17 = icmp ne ptr %16, null
  br i1 %17, label %18, label %21

18:                                               ; preds = %14
  %19 = load ptr, ptr %5, align 8
  %20 = call noundef ptr @_ZNK14SystemProperty4nextEv(ptr noundef nonnull align 8 dereferenceable(26) %19)
  store ptr %20, ptr %5, align 8
  br label %14, !llvm.loop !8

21:                                               ; preds = %14
  %22 = load ptr, ptr %5, align 8
  %23 = load ptr, ptr %4, align 8
  call void @_ZN14SystemProperty8set_nextEPS_(ptr noundef nonnull align 8 dereferenceable(26) %22, ptr noundef %23)
  br label %24

24:                                               ; preds = %21, %10
  ret void
}

; Function Attrs: mustprogress nounwind uwtable
define hidden noundef zeroext i1 @_ZN10PathString9set_valueEPKcN17AllocFailStrategy13AllocFailEnumE(ptr noundef nonnull align 8 dereferenceable(8) %0, ptr noundef %1, i32 noundef %2) #1 align 2 {
  %4 = alloca i1, align 1
  %5 = alloca ptr, align 8
  %6 = alloca ptr, align 8
  %7 = alloca i32, align 4
  %8 = alloca ptr, align 8
  store ptr %0, ptr %5, align 8
  store ptr %1, ptr %6, align 8
  store i32 %2, ptr %7, align 4
  %9 = load ptr, ptr %5, align 8
  %10 = load ptr, ptr %6, align 8
  %11 = call i64 @strlen(ptr noundef %10) #12
  %12 = add i64 %11, 1
  %13 = load i32, ptr %7, align 4
  %14 = call noundef ptr @_Z12AllocateHeapm8MEMFLAGSN17AllocFailStrategy13AllocFailEnumE(i64 noundef %12, i8 noundef zeroext 19, i32 noundef %13)
  store ptr %14, ptr %8, align 8
  %15 = load ptr, ptr %8, align 8
  %16 = icmp eq ptr %15, null
  br i1 %16, label %17, label %18

17:                                               ; preds = %3
  store i1 false, ptr %4, align 1
  br label %32

18:                                               ; preds = %3
  %19 = getelementptr inbounds %class.PathString, ptr %9, i32 0, i32 0
  %20 = load ptr, ptr %19, align 8
  %21 = icmp ne ptr %20, null
  br i1 %21, label %22, label %25

22:                                               ; preds = %18
  %23 = getelementptr inbounds %class.PathString, ptr %9, i32 0, i32 0
  %24 = load ptr, ptr %23, align 8
  call void @_Z8FreeHeapPv(ptr noundef %24)
  br label %25

25:                                               ; preds = %22, %18
  %26 = load ptr, ptr %8, align 8
  %27 = getelementptr inbounds %class.PathString, ptr %9, i32 0, i32 0
  store ptr %26, ptr %27, align 8
  %28 = getelementptr inbounds %class.PathString, ptr %9, i32 0, i32 0
  %29 = load ptr, ptr %28, align 8
  %30 = load ptr, ptr %6, align 8
  %31 = call ptr @strcpy(ptr noundef %29, ptr noundef %30) #13
  store i1 true, ptr %4, align 1
  br label %32

32:                                               ; preds = %25, %17
  %33 = load i1, ptr %4, align 1
  ret i1 %33
}

; Function Attrs: mustprogress nounwind uwtable
define linkonce_odr hidden noundef zeroext i1 @_ZNK14SystemProperty9writeableEv(ptr noundef nonnull align 8 dereferenceable(26) %0) #1 comdat align 2 {
  %2 = alloca ptr, align 8
  store ptr %0, ptr %2, align 8
  %3 = load ptr, ptr %2, align 8
  %4 = getelementptr inbounds %class.SystemProperty, ptr %3, i32 0, i32 4
  %5 = load i8, ptr %4, align 1
  %6 = trunc i8 %5 to i1
  ret i1 %6
}

; Function Attrs: mustprogress nounwind uwtable
define hidden void @_ZN9Arguments16PropertyList_addEPP14SystemPropertyPKcS4_bb(ptr noundef %0, ptr noundef %1, ptr noundef %2, i1 noundef zeroext %3, i1 noundef zeroext %4) #1 align 2 {
  %6 = alloca i64, align 8
  %7 = alloca i8, align 1
  %8 = alloca i64, align 8
  %9 = alloca ptr, align 8
  %10 = alloca ptr, align 8
  %11 = alloca ptr, align 8
  %12 = alloca i8, align 1
  %13 = alloca i8, align 1
  %14 = alloca ptr, align 8
  store ptr %0, ptr %9, align 8
  store ptr %1, ptr %10, align 8
  store ptr %2, ptr %11, align 8
  %15 = zext i1 %3 to i8
  store i8 %15, ptr %12, align 1
  %16 = zext i1 %4 to i8
  store i8 %16, ptr %13, align 1
  %17 = load ptr, ptr %9, align 8
  %18 = icmp eq ptr %17, null
  br i1 %18, label %19, label %20

19:                                               ; preds = %5
  br label %33

20:                                               ; preds = %5
  store i64 32, ptr %8, align 8
  %21 = load i64, ptr %8, align 8
  store i64 %21, ptr %6, align 8
  store i8 19, ptr %7, align 1
  %22 = load i64, ptr %6, align 8
  %23 = load i8, ptr %7, align 1
  %24 = call noundef ptr @_Z12AllocateHeapm8MEMFLAGSN17AllocFailStrategy13AllocFailEnumE(i64 noundef %22, i8 noundef zeroext %23, i32 noundef 0) #13
  %25 = load ptr, ptr %10, align 8
  %26 = load ptr, ptr %11, align 8
  %27 = load i8, ptr %12, align 1
  %28 = trunc i8 %27 to i1
  %29 = load i8, ptr %13, align 1
  %30 = trunc i8 %29 to i1
  call void @_ZN14SystemPropertyC1EPKcS1_bb(ptr noundef nonnull align 8 dereferenceable(26) %24, ptr noundef %25, ptr noundef %26, i1 noundef zeroext %28, i1 noundef zeroext %30)
  store ptr %24, ptr %14, align 8
  %31 = load ptr, ptr %9, align 8
  %32 = load ptr, ptr %14, align 8
  call void @_ZN9Arguments16PropertyList_addEPP14SystemPropertyS1_(ptr noundef %31, ptr noundef %32)
  br label %33

33:                                               ; preds = %20, %19
  ret void
}

; Function Attrs: mustprogress nounwind uwtable
define linkonce_odr hidden noundef ptr @_ZNK14SystemProperty4nextEv(ptr noundef nonnull align 8 dereferenceable(26) %0) #1 comdat align 2 {
  %2 = alloca ptr, align 8
  store ptr %0, ptr %2, align 8
  %3 = load ptr, ptr %2, align 8
  %4 = getelementptr inbounds %class.SystemProperty, ptr %3, i32 0, i32 2
  %5 = load ptr, ptr %4, align 8
  ret ptr %5
}

; Function Attrs: mustprogress nounwind uwtable
define linkonce_odr hidden void @_ZN14SystemProperty19set_writeable_valueEPKc(ptr noundef nonnull align 8 dereferenceable(26) %0, ptr noundef %1) #1 comdat align 2 {
  %3 = alloca ptr, align 8
  %4 = alloca ptr, align 8
  store ptr %0, ptr %3, align 8
  store ptr %1, ptr %4, align 8
  %5 = load ptr, ptr %3, align 8
  %6 = call noundef zeroext i1 @_ZNK14SystemProperty9writeableEv(ptr noundef nonnull align 8 dereferenceable(26) %5)
  br i1 %6, label %7, label %10

7:                                                ; preds = %2
  %8 = load ptr, ptr %4, align 8
  %9 = call noundef zeroext i1 @_ZN10PathString9set_valueEPKcN17AllocFailStrategy13AllocFailEnumE(ptr noundef nonnull align 8 dereferenceable(8) %5, ptr noundef %8, i32 noundef 0)
  br label %10

10:                                               ; preds = %7, %2
  ret void
}

; Function Attrs: mustprogress nounwind uwtable
define linkonce_odr hidden void @_ZN14SystemProperty22append_writeable_valueEPKc(ptr noundef nonnull align 8 dereferenceable(26) %0, ptr noundef %1) #1 comdat align 2 {
  %3 = alloca ptr, align 8
  %4 = alloca ptr, align 8
  store ptr %0, ptr %3, align 8
  store ptr %1, ptr %4, align 8
  %5 = load ptr, ptr %3, align 8
  %6 = call noundef zeroext i1 @_ZNK14SystemProperty9writeableEv(ptr noundef nonnull align 8 dereferenceable(26) %5)
  br i1 %6, label %7, label %9

7:                                                ; preds = %2
  %8 = load ptr, ptr %4, align 8
  call void @_ZN10PathString12append_valueEPKc(ptr noundef nonnull align 8 dereferenceable(8) %5, ptr noundef %8)
  br label %9

9:                                                ; preds = %7, %2
  ret void
}

; Function Attrs: mustprogress nounwind uwtable
define linkonce_odr hidden noundef ptr @_ZNK14SystemProperty3keyEv(ptr noundef nonnull align 8 dereferenceable(26) %0) #1 comdat align 2 {
  %2 = alloca ptr, align 8
  store ptr %0, ptr %2, align 8
  %3 = load ptr, ptr %2, align 8
  %4 = getelementptr inbounds %class.SystemProperty, ptr %3, i32 0, i32 1
  %5 = load ptr, ptr %4, align 8
  ret ptr %5
}

; Function Attrs: mustprogress nounwind uwtable
define hidden void @_ZN9Arguments23PropertyList_unique_addEPP14SystemPropertyPKcS4_NS_18PropertyAppendableENS_17PropertyWriteableENS_16PropertyInternalE(ptr noundef %0, ptr noundef %1, ptr noundef %2, i32 noundef %3, i32 noundef %4, i32 noundef %5) #1 align 2 {
  %7 = alloca ptr, align 8
  %8 = alloca ptr, align 8
  %9 = alloca ptr, align 8
  %10 = alloca i32, align 4
  %11 = alloca i32, align 4
  %12 = alloca i32, align 4
  %13 = alloca ptr, align 8
  store ptr %0, ptr %7, align 8
  store ptr %1, ptr %8, align 8
  store ptr %2, ptr %9, align 8
  store i32 %3, ptr %10, align 4
  store i32 %4, ptr %11, align 4
  store i32 %5, ptr %12, align 4
  %14 = load ptr, ptr %7, align 8
  %15 = icmp eq ptr %14, null
  br i1 %15, label %16, label %17

16:                                               ; preds = %6
  br label %51

17:                                               ; preds = %6
  %18 = load ptr, ptr %7, align 8
  %19 = load ptr, ptr %18, align 8
  store ptr %19, ptr %13, align 8
  br label %20

20:                                               ; preds = %40, %17
  %21 = load ptr, ptr %13, align 8
  %22 = icmp ne ptr %21, null
  br i1 %22, label %23, label %43

23:                                               ; preds = %20
  %24 = load ptr, ptr %8, align 8
  %25 = load ptr, ptr %13, align 8
  %26 = call noundef ptr @_ZNK14SystemProperty3keyEv(ptr noundef nonnull align 8 dereferenceable(26) %25)
  %27 = call i32 @strcmp(ptr noundef %24, ptr noundef %26) #12
  %28 = icmp eq i32 %27, 0
  br i1 %28, label %29, label %39

29:                                               ; preds = %23
  %30 = load i32, ptr %10, align 4
  %31 = icmp eq i32 %30, 0
  br i1 %31, label %32, label %35

32:                                               ; preds = %29
  %33 = load ptr, ptr %13, align 8
  %34 = load ptr, ptr %9, align 8
  call void @_ZN14SystemProperty22append_writeable_valueEPKc(ptr noundef nonnull align 8 dereferenceable(26) %33, ptr noundef %34)
  br label %38

35:                                               ; preds = %29
  %36 = load ptr, ptr %13, align 8
  %37 = load ptr, ptr %9, align 8
  call void @_ZN14SystemProperty19set_writeable_valueEPKc(ptr noundef nonnull align 8 dereferenceable(26) %36, ptr noundef %37)
  br label %38

38:                                               ; preds = %35, %32
  br label %51

39:                                               ; preds = %23
  br label %40

40:                                               ; preds = %39
  %41 = load ptr, ptr %13, align 8
  %42 = call noundef ptr @_ZNK14SystemProperty4nextEv(ptr noundef nonnull align 8 dereferenceable(26) %41)
  store ptr %42, ptr %13, align 8
  br label %20, !llvm.loop !18

43:                                               ; preds = %20
  %44 = load ptr, ptr %7, align 8
  %45 = load ptr, ptr %8, align 8
  %46 = load ptr, ptr %9, align 8
  %47 = load i32, ptr %11, align 4
  %48 = icmp eq i32 %47, 0
  %49 = load i32, ptr %12, align 4
  %50 = icmp eq i32 %49, 0
  call void @_ZN9Arguments16PropertyList_addEPP14SystemPropertyPKcS4_bb(ptr noundef %44, ptr noundef %45, ptr noundef %46, i1 noundef zeroext %48, i1 noundef zeroext %50)
  br label %51

51:                                               ; preds = %43, %38, %16
  ret void
}