; Function Attrs: mustprogress nounwind uwtable
define hidden void @_ZN9Arguments23PropertyList_unique_addEPP14SystemPropertyPKcS4_NS_18PropertyAppendableENS_17PropertyWriteableENS_16PropertyInternalE(ptr noundef %0, ptr noundef %1, ptr noundef %2, i32 noundef %3, i32 noundef %4, i32 noundef %5) local_unnamed_addr #0 align 2 {
  %7 = icmp eq ptr %0, null
  br i1 %7, label %_ZN14SystemProperty22append_writeable_valueEPKc.exit, label %.preheader

.preheader:                                       ; preds = %6
  %.018 = load ptr, ptr %0, align 8
  %.not19 = icmp eq ptr %.018, null
  br i1 %.not19, label %._crit_edge, label %.lr.ph

.lr.ph:                                           ; preds = %.preheader, %29
  %.020 = phi ptr [ %.0, %29 ], [ %.018, %.preheader ]
  %8 = getelementptr inbounds i8, ptr %.020, i64 8
  %9 = load ptr, ptr %8, align 8
  %10 = tail call i32 @strcmp(ptr noundef nonnull dereferenceable(1) %1, ptr noundef nonnull dereferenceable(1) %9) #30
  %11 = icmp eq i32 %10, 0
  br i1 %11, label %12, label %29

12:                                               ; preds = %.lr.ph
  %13 = icmp eq i32 %3, 0
  %14 = getelementptr inbounds i8, ptr %.020, i64 25
  %15 = load i8, ptr %14, align 1
  %16 = trunc i8 %15 to i1
  br i1 %13, label %17, label %19

17:                                               ; preds = %12
  br i1 %16, label %18, label %_ZN14SystemProperty22append_writeable_valueEPKc.exit

18:                                               ; preds = %17
  tail call void @_ZN10PathString12append_valueEPKc(ptr noundef nonnull align 8 dereferenceable(8) %.020, ptr noundef %2)
  br label %_ZN14SystemProperty22append_writeable_valueEPKc.exit

19:                                               ; preds = %12
  br i1 %16, label %20, label %_ZN14SystemProperty22append_writeable_valueEPKc.exit

20:                                               ; preds = %19
  %21 = tail call i64 @strlen(ptr noundef nonnull readonly dereferenceable(1) %2) #30
  %22 = add i64 %21, 1
  %23 = tail call noundef ptr @_Z12AllocateHeapm8MEMFLAGSN17AllocFailStrategy13AllocFailEnumE(i64 noundef %22, i8 noundef zeroext 19, i32 noundef 0) #31
  %.not.i = icmp eq ptr %23, null
  br i1 %.not.i, label %_ZN14SystemProperty22append_writeable_valueEPKc.exit, label %24

24:                                               ; preds = %20
  %25 = load ptr, ptr %.020, align 8
  %.not.i.i = icmp eq ptr %25, null
  br i1 %.not.i.i, label %27, label %26

26:                                               ; preds = %24
  tail call void @_Z8FreeHeapPv(ptr noundef nonnull %25) #31
  br label %27

27:                                               ; preds = %26, %24
  store ptr %23, ptr %.020, align 8
  %28 = tail call ptr @strcpy(ptr noundef nonnull dereferenceable(1) %23, ptr noundef nonnull readonly dereferenceable(1) %2) #31
  br label %_ZN14SystemProperty22append_writeable_valueEPKc.exit

29:                                               ; preds = %.lr.ph
  %30 = getelementptr inbounds i8, ptr %.020, i64 16
  %.0 = load ptr, ptr %30, align 8
  %.not = icmp eq ptr %.0, null
  br i1 %.not, label %._crit_edge, label %.lr.ph, !llvm.loop !17

._crit_edge:                                      ; preds = %29, %.preheader
  %31 = icmp eq i32 %4, 0
  %32 = icmp eq i32 %5, 0
  %33 = tail call noundef ptr @_Z12AllocateHeapm8MEMFLAGSN17AllocFailStrategy13AllocFailEnumE(i64 noundef 32, i8 noundef zeroext 19, i32 noundef 0) #31
  tail call void @_ZN14SystemPropertyC2EPKcS1_bb(ptr noundef nonnull align 8 dereferenceable(26) %33, ptr noundef %1, ptr noundef %2, i1 noundef zeroext %31, i1 noundef zeroext %32)
  %34 = load ptr, ptr %0, align 8
  %35 = icmp eq ptr %34, null
  br i1 %35, label %_ZN9Arguments16PropertyList_addEPP14SystemPropertyPKcS4_bb.exit, label %.preheader.i.i

.preheader.i.i:                                   ; preds = %._crit_edge, %.preheader.i.i
  %.0.i.i = phi ptr [ %37, %.preheader.i.i ], [ %34, %._crit_edge ]
  %36 = getelementptr inbounds i8, ptr %.0.i.i, i64 16
  %37 = load ptr, ptr %36, align 8
  %.not.i.i16 = icmp eq ptr %37, null
  br i1 %.not.i.i16, label %_ZN9Arguments16PropertyList_addEPP14SystemPropertyPKcS4_bb.exit.loopexit, label %.preheader.i.i, !llvm.loop !8

_ZN9Arguments16PropertyList_addEPP14SystemPropertyPKcS4_bb.exit.loopexit: ; preds = %.preheader.i.i
  %38 = getelementptr inbounds i8, ptr %.0.i.i, i64 16
  br label %_ZN9Arguments16PropertyList_addEPP14SystemPropertyPKcS4_bb.exit

_ZN9Arguments16PropertyList_addEPP14SystemPropertyPKcS4_bb.exit: ; preds = %_ZN9Arguments16PropertyList_addEPP14SystemPropertyPKcS4_bb.exit.loopexit, %._crit_edge
  %.sink.i.i = phi ptr [ %0, %._crit_edge ], [ %38, %_ZN9Arguments16PropertyList_addEPP14SystemPropertyPKcS4_bb.exit.loopexit ]
  store ptr %33, ptr %.sink.i.i, align 8
  br label %_ZN14SystemProperty22append_writeable_valueEPKc.exit

_ZN14SystemProperty22append_writeable_valueEPKc.exit: ; preds = %27, %20, %19, %18, %17, %6, %_ZN9Arguments16PropertyList_addEPP14SystemPropertyPKcS4_bb.exit
  ret void
}